; Function Attrs: mustprogress nofree nounwind willreturn memory(argmem: readwrite, inaccessiblemem: readwrite) uwtable
define hidden noundef zeroext i1 @_ZNK3ue29CharReach10isSubsetOfERKS0_(ptr noundef nonnull readonly align 8 captures(none) dereferenceable(32) %0, ptr noundef nonnull readonly align 8 captures(none) dereferenceable(32) %1) local_unnamed_addr #5 align 2 {
  %3 = alloca %"class.ue2::bitfield", align 8
  call void @llvm.lifetime.start.p0(i64 32, ptr nonnull %3) #17
  tail call void @llvm.experimental.noalias.scope.decl(metadata !16)
  call void @llvm.memcpy.p0.p0.i64(ptr noundef nonnull align 8 dereferenceable(32) %3, ptr noundef nonnull align 8 dereferenceable(32) %1, i64 32, i1 false)
  %4 = load i64, ptr %0, align 8, !noalias !16
  %5 = load i64, ptr %3, align 8, !alias.scope !16
  %6 = and i64 %5, %4
  store i64 %6, ptr %3, align 8, !alias.scope !16
  %7 = getelementptr inbounds nuw i8, ptr %0, i64 8
  %8 = load i64, ptr %7, align 8, !noalias !16
  %9 = getelementptr inbounds nuw i8, ptr %3, i64 8
  %10 = load i64, ptr %9, align 8, !alias.scope !16
  %11 = and i64 %10, %8
  store i64 %11, ptr %9, align 8, !alias.scope !16
  %12 = getelementptr inbounds nuw i8, ptr %0, i64 16
  %13 = load i64, ptr %12, align 8, !noalias !16
  %14 = getelementptr inbounds nuw i8, ptr %3, i64 16
  %15 = load i64, ptr %14, align 8, !alias.scope !16
  %16 = and i64 %15, %13
  store i64 %16, ptr %14, align 8, !alias.scope !16
  %17 = getelementptr inbounds nuw i8, ptr %0, i64 24
  %18 = load i64, ptr %17, align 8, !noalias !16
  %19 = getelementptr inbounds nuw i8, ptr %3, i64 24
  %20 = load i64, ptr %19, align 8, !alias.scope !16
  %21 = and i64 %20, %18
  store i64 %21, ptr %19, align 8, !alias.scope !16
  %bcmp.i.i.i.i.i.i = call i32 @bcmp(ptr noundef nonnull align 8 dereferenceable(32) %3, ptr noundef nonnull align 8 dereferenceable(32) %0, i64 32)
  %.not9.i.i.i.i.i.i = icmp eq i32 %bcmp.i.i.i.i.i.i, 0
  call void @llvm.lifetime.end.p0(i64 32, ptr nonnull %3) #17
  ret i1 %.not9.i.i.i.i.i.i
}